; Function Attrs: nounwind uwtable
define internal void @fn_repo_fl(ptr noundef %0, i32 noundef %1, ptr noundef %2) #0 {
  %4 = alloca %struct.strbuf, align 8
  call void @llvm.lifetime.start.p0(i64 24, ptr nonnull %4) #7
  call void @llvm.memcpy.p0.p0.i64(ptr noundef nonnull align 8 dereferenceable(24) %4, ptr noundef nonnull align 8 dereferenceable(24) @__const.fn_counter.buf_payload, i64 24, i1 false)
  call void @strbuf_add(ptr noundef nonnull %4, ptr noundef nonnull @.str.55, i64 noundef 9) #7
  %5 = getelementptr inbounds nuw i8, ptr %2, i64 240
  %6 = load ptr, ptr %5, align 8, !tbaa !29
  call void @sq_quote_buf_pretty(ptr noundef nonnull %4, ptr noundef %6) #7
  call fastcc void @perf_io_write_fl(ptr noundef %0, i32 noundef %1, ptr noundef nonnull @.str.54, ptr noundef %2, ptr noundef null, ptr noundef null, ptr noundef null, ptr noundef %4)
  call void @strbuf_release(ptr noundef nonnull %4) #7
  call void @llvm.lifetime.end.p0(i64 24, ptr nonnull %4) #7
  ret void
}